#include <math.h>
#include <stdio.h>
#include <stdlib.h>
#include <string.h>


int main()
{
    char s[1000];
    gets(s);
    int i, count[200], len, j=0;
    int first=1;
    len=strlen(s);
    memset(count, 0, sizeof(count));
    for(i=0; i<len; i++)
    {
        if(s[i]!=' ')
        {
			
           do
            {
                count[j]++;
                i++;
            }while((i!=len)&&(s[i]!=' '));
            
			j++;

        }
    }
    for(i=0; i<j; i++)
    {
        if(first)
        first=0;
        else printf(",");
        printf("%d", count[i]);
    }
	printf("\n");
    return 0;
}

