; ModuleID = 'source-C-CXX/27/1802.c'
source_filename = "source-C-CXX/27/1802.c"
target datalayout = "e-m:e-p270:32:32-p271:32:32-p272:64:64-i64:64-f80:128-n8:16:32:64-S128"
target triple = "x86_64-pc-linux-gnu"

@.str.1 = private unnamed_addr constant [3 x i8] c"%d\00", align 1

; Function Attrs: nounwind sspstrong uwtable
define dso_local i32 @main() local_unnamed_addr #0 {
  %1 = alloca [1000 x i8], align 16
  %2 = alloca [200 x i32], align 16
  %3 = getelementptr inbounds [1000 x i8], [1000 x i8]* %1, i64 0, i64 0
  call void @llvm.lifetime.start.p0i8(i64 1000, i8* nonnull %3) #7
  %4 = call i32 (i8*, ...) bitcast (i32 (...)* @gets to i32 (i8*, ...)*)(i8* nonnull %3) #7
  %5 = bitcast [200 x i32]* %2 to i8*
  call void @llvm.lifetime.start.p0i8(i64 800, i8* nonnull %5) #7
  %6 = call i64 @strlen(i8* noundef nonnull %3) #8
  %7 = trunc i64 %6 to i32
  call void @llvm.memset.p0i8.i64(i8* noundef nonnull align 16 dereferenceable(800) %5, i8 0, i64 800, i1 false)
  %8 = icmp sgt i32 %7, 0
  br i1 %8, label %17, label %60

9:                                                ; preds = %47
  %10 = icmp sgt i32 %49, 0
  br i1 %10, label %11, label %60

11:                                               ; preds = %9
  %12 = zext i32 %49 to i64
  %13 = getelementptr inbounds [200 x i32], [200 x i32]* %2, i64 0, i64 0
  %14 = load i32, i32* %13, align 16, !tbaa !5
  %15 = call i32 (i8*, ...) @printf(i8* nonnull dereferenceable(1) getelementptr inbounds ([3 x i8], [3 x i8]* @.str.1, i64 0, i64 0), i32 %14)
  %16 = icmp eq i32 %49, 1
  br i1 %16, label %60, label %52

17:                                               ; preds = %0, %47
  %18 = phi i32 [ %49, %47 ], [ 0, %0 ]
  %19 = phi i32 [ %50, %47 ], [ 0, %0 ]
  %20 = sext i32 %19 to i64
  %21 = getelementptr inbounds [1000 x i8], [1000 x i8]* %1, i64 0, i64 %20
  %22 = load i8, i8* %21, align 1, !tbaa !9
  %23 = icmp eq i8 %22, 32
  br i1 %23, label %47, label %24

24:                                               ; preds = %17
  %25 = sext i32 %18 to i64
  %26 = getelementptr inbounds [200 x i32], [200 x i32]* %2, i64 0, i64 %25
  %27 = load i32, i32* %26, align 4, !tbaa !5
  %28 = add i32 %27, %7
  %29 = sub i32 %28, %19
  br label %30

30:                                               ; preds = %24, %37
  %31 = phi i64 [ %20, %24 ], [ %34, %37 ]
  %32 = phi i32 [ %27, %24 ], [ %33, %37 ]
  %33 = add nsw i32 %32, 1
  %34 = add nsw i64 %31, 1
  %35 = trunc i64 %34 to i32
  %36 = icmp eq i32 %35, %7
  br i1 %36, label %43, label %37

37:                                               ; preds = %30
  %38 = getelementptr inbounds [1000 x i8], [1000 x i8]* %1, i64 0, i64 %34
  %39 = load i8, i8* %38, align 1, !tbaa !9
  %40 = icmp eq i8 %39, 32
  br i1 %40, label %41, label %30, !llvm.loop !10

41:                                               ; preds = %37
  %42 = trunc i64 %34 to i32
  br label %43

43:                                               ; preds = %30, %41
  %44 = phi i32 [ %33, %41 ], [ %29, %30 ]
  %45 = phi i32 [ %42, %41 ], [ %7, %30 ]
  store i32 %44, i32* %26, align 4, !tbaa !5
  %46 = add nsw i32 %18, 1
  br label %47

47:                                               ; preds = %17, %43
  %48 = phi i32 [ %45, %43 ], [ %19, %17 ]
  %49 = phi i32 [ %46, %43 ], [ %18, %17 ]
  %50 = add nsw i32 %48, 1
  %51 = icmp slt i32 %50, %7
  br i1 %51, label %17, label %9, !llvm.loop !12

52:                                               ; preds = %11, %52
  %53 = phi i64 [ %58, %52 ], [ 1, %11 ]
  %54 = call i32 @putchar(i32 44)
  %55 = getelementptr inbounds [200 x i32], [200 x i32]* %2, i64 0, i64 %53
  %56 = load i32, i32* %55, align 4, !tbaa !5
  %57 = call i32 (i8*, ...) @printf(i8* nonnull dereferenceable(1) getelementptr inbounds ([3 x i8], [3 x i8]* @.str.1, i64 0, i64 0), i32 %56)
  %58 = add nuw nsw i64 %53, 1
  %59 = icmp eq i64 %58, %12
  br i1 %59, label %60, label %52, !llvm.loop !13

60:                                               ; preds = %52, %0, %11, %9
  %61 = call i32 @putchar(i32 10)
  call void @llvm.lifetime.end.p0i8(i64 800, i8* nonnull %5) #7
  call void @llvm.lifetime.end.p0i8(i64 1000, i8* nonnull %3) #7
  ret i32 0
}

; Function Attrs: argmemonly mustprogress nofree nosync nounwind willreturn
declare void @llvm.lifetime.start.p0i8(i64 immarg, i8* nocapture) #1

declare i32 @gets(...) local_unnamed_addr #2

; Function Attrs: argmemonly mustprogress nofree nounwind readonly willreturn
declare i64 @strlen(i8* nocapture) local_unnamed_addr #3

; Function Attrs: argmemonly mustprogress nofree nounwind willreturn writeonly
declare void @llvm.memset.p0i8.i64(i8* nocapture writeonly, i8, i64, i1 immarg) #4

; Function Attrs: nofree nounwind
declare noundef i32 @printf(i8* nocapture noundef readonly, ...) local_unnamed_addr #5

; Function Attrs: argmemonly mustprogress nofree nosync nounwind willreturn
declare void @llvm.lifetime.end.p0i8(i64 immarg, i8* nocapture) #1

; Function Attrs: nofree nounwind
declare noundef i32 @putchar(i32 noundef) local_unnamed_addr #6


!llvm.module.flags = !{!0, !1, !2, !3}
!llvm.ident = !{!4}

!0 = !{i32 1, !"wchar_size", i32 4}
!1 = !{i32 7, !"PIC Level", i32 2}
!2 = !{i32 7, !"PIE Level", i32 2}
!3 = !{i32 7, !"uwtable", i32 1}
!4 = !{!"clang version 13.0.0"}
!5 = !{!6, !6, i64 0}
!6 = !{!"int", !7, i64 0}
!7 = !{!"omnipotent char", !8, i64 0}
!8 = !{!"Simple C/C++ TBAA"}
!9 = !{!7, !7, i64 0}
!10 = distinct !{!10, !11}
!11 = !{!"llvm.loop.mustprogress"}
!12 = distinct !{!12, !11}
!13 = distinct !{!13, !11, !14}
!14 = !{!"llvm.loop.peeled.count", i32 1}
